; Function Attrs: nounwind uwtable
define dso_local noundef ptr @gres_select_util_create_list_req_accum(ptr noundef %0) local_unnamed_addr #0 {
  %.not = icmp eq ptr %0, null
  br i1 %.not, label %5, label %2

2:                                                ; preds = %1
  %3 = tail call ptr @slurm_list_create(ptr noundef nonnull @slurm_gres_job_list_delete) #4
  %4 = tail call i32 @slurm_list_for_each(ptr noundef nonnull %0, ptr noundef nonnull @_accumulate_gres_device_req, ptr noundef %3) #4
  br label %5

5:                                                ; preds = %1, %2
  %.0 = phi ptr [ %3, %2 ], [ null, %1 ]
  ret ptr %.0
}